target datalayout = "e-m:e-p270:32:32-p271:32:32-p272:64:64-i64:64-i128:128-f80:128-n8:16:32:64-S128"
target triple = "x86_64-pc-linux-gnu"

%struct.timeval = type { i64, i64 }

@.str = private unnamed_addr constant [2 x i8] c" \00", align 1
@.str.39 = private unnamed_addr constant [46 x i8] c"%sData type: PMIX_TIMEVAL\09Value: NULL pointer\00", align 1
@.str.40 = private unnamed_addr constant [43 x i8] c"%sData type: PMIX_TIMEVAL\09Value: %ld.%06ld\00", align 1

; Function Attrs: nounwind uwtable
define i32 @pmix20_bfrop_print_timeval(ptr noundef %0, ptr noundef %1, ptr noundef %2, i16 noundef zeroext %3) #0 {
  %5 = alloca i32, align 4
  %6 = alloca ptr, align 8
  %7 = alloca ptr, align 8
  %8 = alloca ptr, align 8
  %9 = alloca i16, align 2
  %10 = alloca ptr, align 8
  %11 = alloca i32, align 4
  store ptr %0, ptr %6, align 8, !tbaa !3
  store ptr %1, ptr %7, align 8, !tbaa !8
  store ptr %2, ptr %8, align 8, !tbaa !48
  store i16 %3, ptr %9, align 2, !tbaa !11
  call void @llvm.lifetime.start.p0(i64 8, ptr %10) #7
  %12 = load ptr, ptr %7, align 8, !tbaa !8
  %13 = icmp eq ptr null, %12
  br i1 %13, label %14, label %19

14:                                               ; preds = %4
  %15 = call i32 (ptr, ptr, ...) @asprintf(ptr noundef %10, ptr noundef @.str) #7
  %16 = icmp sgt i32 0, %15
  br i1 %16, label %17, label %18

17:                                               ; preds = %14
  store i32 -32, ptr %5, align 4
  store i32 1, ptr %11, align 4
  br label %68

18:                                               ; preds = %14
  br label %21

19:                                               ; preds = %4
  %20 = load ptr, ptr %7, align 8, !tbaa !8
  store ptr %20, ptr %10, align 8, !tbaa !8
  br label %21

21:                                               ; preds = %19, %18
  %22 = load ptr, ptr %8, align 8, !tbaa !48
  %23 = icmp eq ptr null, %22
  br i1 %23, label %24, label %43

24:                                               ; preds = %21
  %25 = load ptr, ptr %6, align 8, !tbaa !3
  %26 = load ptr, ptr %10, align 8, !tbaa !8
  %27 = call i32 (ptr, ptr, ...) @asprintf(ptr noundef %25, ptr noundef @.str.39, ptr noundef %26) #7
  %28 = icmp sgt i32 0, %27
  br i1 %28, label %29, label %36

29:                                               ; preds = %24
  %30 = load ptr, ptr %10, align 8, !tbaa !8
  %31 = load ptr, ptr %7, align 8, !tbaa !8
  %32 = icmp ne ptr %30, %31
  br i1 %32, label %33, label %35

33:                                               ; preds = %29
  %34 = load ptr, ptr %10, align 8, !tbaa !8
  call void @free(ptr noundef %34) #7
  br label %35

35:                                               ; preds = %33, %29
  store i32 -32, ptr %5, align 4
  store i32 1, ptr %11, align 4
  br label %68

36:                                               ; preds = %24
  %37 = load ptr, ptr %10, align 8, !tbaa !8
  %38 = load ptr, ptr %7, align 8, !tbaa !8
  %39 = icmp ne ptr %37, %38
  br i1 %39, label %40, label %42

40:                                               ; preds = %36
  %41 = load ptr, ptr %10, align 8, !tbaa !8
  call void @free(ptr noundef %41) #7
  br label %42

42:                                               ; preds = %40, %36
  store i32 0, ptr %5, align 4
  store i32 1, ptr %11, align 4
  br label %68

43:                                               ; preds = %21
  %44 = load ptr, ptr %6, align 8, !tbaa !3
  %45 = load ptr, ptr %10, align 8, !tbaa !8
  %46 = load ptr, ptr %8, align 8, !tbaa !48
  %47 = getelementptr inbounds nuw %struct.timeval, ptr %46, i32 0, i32 0
  %48 = load i64, ptr %47, align 8, !tbaa !50
  %49 = load ptr, ptr %8, align 8, !tbaa !48
  %50 = getelementptr inbounds nuw %struct.timeval, ptr %49, i32 0, i32 1
  %51 = load i64, ptr %50, align 8, !tbaa !52
  %52 = call i32 (ptr, ptr, ...) @asprintf(ptr noundef %44, ptr noundef @.str.40, ptr noundef %45, i64 noundef %48, i64 noundef %51) #7
  %53 = icmp sgt i32 0, %52
  br i1 %53, label %54, label %61

54:                                               ; preds = %43
  %55 = load ptr, ptr %10, align 8, !tbaa !8
  %56 = load ptr, ptr %7, align 8, !tbaa !8
  %57 = icmp ne ptr %55, %56
  br i1 %57, label %58, label %60

58:                                               ; preds = %54
  %59 = load ptr, ptr %10, align 8, !tbaa !8
  call void @free(ptr noundef %59) #7
  br label %60

60:                                               ; preds = %58, %54
  store i32 -32, ptr %5, align 4
  store i32 1, ptr %11, align 4
  br label %68

61:                                               ; preds = %43
  %62 = load ptr, ptr %10, align 8, !tbaa !8
  %63 = load ptr, ptr %7, align 8, !tbaa !8
  %64 = icmp ne ptr %62, %63
  br i1 %64, label %65, label %67

65:                                               ; preds = %61
  %66 = load ptr, ptr %10, align 8, !tbaa !8
  call void @free(ptr noundef %66) #7
  br label %67

67:                                               ; preds = %65, %61
  store i32 0, ptr %5, align 4
  store i32 1, ptr %11, align 4
  br label %68

68:                                               ; preds = %67, %60, %42, %35, %17
  call void @llvm.lifetime.end.p0(i64 8, ptr %10) #7
  %69 = load i32, ptr %5, align 4
  ret i32 %69
}